target datalayout = "e-m:e-p270:32:32-p271:32:32-p272:64:64-i64:64-i128:128-f80:128-n8:16:32:64-S128"
target triple = "x86_64-pc-linux-gnu"

%"class.std::__cxx11::basic_string" = type { %"struct.std::__cxx11::basic_string<char>::_Alloc_hider", i64, %union.anon }
%"struct.std::__cxx11::basic_string<char>::_Alloc_hider" = type { ptr }
%union.anon = type { i64, [8 x i8] }
%struct.t_interaction_function = type { ptr, ptr, i32, i32, i32, i32 }
%"struct.std::array" = type { [12 x float] }
%struct.InteractionsOfType = type { %"class.std::vector", i32, i32, %"class.std::vector.5", %"class.std::vector.10" }
%"class.std::vector" = type { %"struct.std::_Vector_base" }
%"struct.std::_Vector_base" = type { %"struct.std::_Vector_base<InteractionOfType, std::allocator<InteractionOfType>>::_Vector_impl" }
%"struct.std::_Vector_base<InteractionOfType, std::allocator<InteractionOfType>>::_Vector_impl" = type { %"struct.std::_Vector_base<InteractionOfType, std::allocator<InteractionOfType>>::_Vector_impl_data" }
%"struct.std::_Vector_base<InteractionOfType, std::allocator<InteractionOfType>>::_Vector_impl_data" = type { ptr, ptr, ptr }
%"class.std::vector.5" = type { %"struct.std::_Vector_base.6" }
%"struct.std::_Vector_base.6" = type { %"struct.std::_Vector_base<float, std::allocator<float>>::_Vector_impl" }
%"struct.std::_Vector_base<float, std::allocator<float>>::_Vector_impl" = type { %"struct.std::_Vector_base<float, std::allocator<float>>::_Vector_impl_data" }
%"struct.std::_Vector_base<float, std::allocator<float>>::_Vector_impl_data" = type { ptr, ptr, ptr }
%"class.std::vector.10" = type { %"struct.std::_Vector_base.11" }
%"struct.std::_Vector_base.11" = type { %"struct.std::_Vector_base<int, std::allocator<int>>::_Vector_impl" }
%"struct.std::_Vector_base<int, std::allocator<int>>::_Vector_impl" = type { %"struct.std::_Vector_base<int, std::allocator<int>>::_Vector_impl_data" }
%"struct.std::_Vector_base<int, std::allocator<int>>::_Vector_impl_data" = type { ptr, ptr, ptr }
%class.InteractionOfType = type { %"class.std::vector.10", %"struct.std::array", %"class.std::__cxx11::basic_string" }
%class.anon.33 = type { i8 }
%struct.t_nbparam = type { i8, [4 x float] }

@.str.9 = private unnamed_addr constant [131 x i8] c"generated/home/dtcxzyw/WorkSpace/Projects/compilers/llvm-opt-benchmark/bench/gromacs/gromacs/src/gromacs/gmxpreprocess/toppush.cpp\00", align 1
@interaction_function = external global [94 x %struct.t_interaction_function], align 16
@.str.16 = private unnamed_addr constant [6 x i8] c"param\00", align 1
@.str.17 = private unnamed_addr constant [27 x i8] c"Must have valid parameters\00", align 1
@"__PRETTY_FUNCTION__._ZZ13copy_nbparamsPP9t_nbparamiP18InteractionsOfTypeiENK3$_0clEv" = private unnamed_addr constant [104 x i8] c"auto copy_nbparams(t_nbparam **, int, InteractionsOfType *, int)::(anonymous class)::operator()() const\00", align 1

; Function Attrs: mustprogress nounwind uwtable
define internal noundef i32 @_ZL5NRFPBi(i32 noundef %0) #3 {
  %2 = alloca i32, align 4
  store i32 %0, ptr %2, align 4
  %3 = load i32, ptr %2, align 4
  %4 = sext i32 %3 to i64
  %5 = getelementptr inbounds [94 x %struct.t_interaction_function], ptr @interaction_function, i64 0, i64 %4
  %6 = getelementptr inbounds %struct.t_interaction_function, ptr %5, i32 0, i32 4
  %7 = load i32, ptr %6, align 8
  ret i32 %7
}

; Function Attrs: mustprogress nounwind uwtable
define internal noundef i32 @_ZL5NRFPAi(i32 noundef %0) #3 {
  %2 = alloca i32, align 4
  store i32 %0, ptr %2, align 4
  %3 = load i32, ptr %2, align 4
  %4 = sext i32 %3 to i64
  %5 = getelementptr inbounds [94 x %struct.t_interaction_function], ptr @interaction_function, i64 0, i64 %4
  %6 = getelementptr inbounds %struct.t_interaction_function, ptr %5, i32 0, i32 3
  %7 = load i32, ptr %6, align 4
  ret i32 %7
}

; Function Attrs: mustprogress nounwind uwtable
define linkonce_odr noundef nonnull align 8 dereferenceable(104) ptr @_ZNSt6vectorI17InteractionOfTypeSaIS0_EEixEm(ptr noundef nonnull align 8 dereferenceable(24) %0, i64 noundef %1) #3 comdat align 2 {
  %3 = alloca ptr, align 8
  %4 = alloca i64, align 8
  store ptr %0, ptr %3, align 8
  store i64 %1, ptr %4, align 8
  %5 = load ptr, ptr %3, align 8
  %6 = getelementptr inbounds %"struct.std::_Vector_base", ptr %5, i32 0, i32 0
  %7 = getelementptr inbounds %"struct.std::_Vector_base<InteractionOfType, std::allocator<InteractionOfType>>::_Vector_impl_data", ptr %6, i32 0, i32 0
  %8 = load ptr, ptr %7, align 8
  %9 = load i64, ptr %4, align 8
  %10 = getelementptr inbounds %class.InteractionOfType, ptr %8, i64 %9
  ret ptr %10
}

; Function Attrs: mustprogress uwtable
define internal void @"_ZZ13copy_nbparamsPP9t_nbparamiP18InteractionsOfTypeiENK3$_0clEv"(ptr noundef nonnull align 1 dereferenceable(1) %0) #2 align 2 {
  %2 = alloca ptr, align 8
  store ptr %0, ptr %2, align 8
  call void @_ZN3gmx8internal13assertHandlerEPKcS2_S2_S2_i(ptr noundef @.str.16, ptr noundef @.str.17, ptr noundef @"__PRETTY_FUNCTION__._ZZ13copy_nbparamsPP9t_nbparamiP18InteractionsOfTypeiENK3$_0clEv", ptr noundef @.str.9, i32 noundef 246) #18
  unreachable
}

; Function Attrs: mustprogress uwtable
define internal noundef i32 @_ZL4NRFPi(i32 noundef %0) #2 {
  %2 = alloca i32, align 4
  store i32 %0, ptr %2, align 4
  %3 = load i32, ptr %2, align 4
  %4 = call noundef i32 @_ZL5NRFPAi(i32 noundef %3)
  %5 = load i32, ptr %2, align 4
  %6 = call noundef i32 @_ZL5NRFPBi(i32 noundef %5)
  %7 = add nsw i32 %4, %6
  ret i32 %7
}

; Function Attrs: mustprogress uwtable
define noundef i32 @_Z13copy_nbparamsPP9t_nbparamiP18InteractionsOfTypei(ptr noundef %0, i32 noundef %1, ptr noundef %2, i32 noundef %3) #2 {
  %5 = alloca ptr, align 8
  %6 = alloca i32, align 4
  %7 = alloca ptr, align 8
  %8 = alloca i32, align 4
  %9 = alloca i32, align 4
  %10 = alloca i32, align 4
  %11 = alloca i32, align 4
  %12 = alloca i32, align 4
  %13 = alloca %class.anon.33, align 1
  %14 = alloca i32, align 4
  store ptr %0, ptr %5, align 8
  store i32 %1, ptr %6, align 4
  store ptr %2, ptr %7, align 8
  store i32 %3, ptr %8, align 4
  %15 = load i32, ptr %6, align 4
  %16 = call noundef i32 @_ZL4NRFPi(i32 noundef %15)
  store i32 %16, ptr %9, align 4
  store i32 0, ptr %10, align 4
  store i32 0, ptr %11, align 4
  br label %17

17:                                               ; preds = %106, %4
  %18 = load i32, ptr %11, align 4
  %19 = load i32, ptr %8, align 4
  %20 = icmp slt i32 %18, %19
  br i1 %20, label %21, label %109

21:                                               ; preds = %17
  store i32 0, ptr %12, align 4
  br label %22

22:                                               ; preds = %102, %21
  %23 = load i32, ptr %12, align 4
  %24 = load i32, ptr %11, align 4
  %25 = icmp sle i32 %23, %24
  br i1 %25, label %26, label %105

26:                                               ; preds = %22
  %27 = load ptr, ptr %5, align 8
  %28 = icmp ne ptr %27, null
  br i1 %28, label %29, label %30

29:                                               ; preds = %26
  br label %31

30:                                               ; preds = %26
  call void @"_ZZ13copy_nbparamsPP9t_nbparamiP18InteractionsOfTypeiENK3$_0clEv"(ptr noundef nonnull align 1 dereferenceable(1) %13)
  br label %31

31:                                               ; preds = %30, %29
  %32 = load ptr, ptr %5, align 8
  %33 = load i32, ptr %11, align 4
  %34 = sext i32 %33 to i64
  %35 = getelementptr inbounds ptr, ptr %32, i64 %34
  %36 = load ptr, ptr %35, align 8
  %37 = load i32, ptr %12, align 4
  %38 = sext i32 %37 to i64
  %39 = getelementptr inbounds %struct.t_nbparam, ptr %36, i64 %38
  %40 = getelementptr inbounds %struct.t_nbparam, ptr %39, i32 0, i32 0
  %41 = load i8, ptr %40, align 4
  %42 = trunc i8 %41 to i1
  br i1 %42, label %43, label %101

43:                                               ; preds = %31
  store i32 0, ptr %14, align 4
  br label %44

44:                                               ; preds = %95, %43
  %45 = load i32, ptr %14, align 4
  %46 = load i32, ptr %9, align 4
  %47 = icmp slt i32 %45, %46
  br i1 %47, label %48, label %98

48:                                               ; preds = %44
  %49 = load ptr, ptr %7, align 8
  %50 = getelementptr inbounds %struct.InteractionsOfType, ptr %49, i32 0, i32 0
  %51 = load i32, ptr %8, align 4
  %52 = load i32, ptr %11, align 4
  %53 = mul nsw i32 %51, %52
  %54 = load i32, ptr %12, align 4
  %55 = add nsw i32 %53, %54
  %56 = sext i32 %55 to i64
  %57 = call noundef nonnull align 8 dereferenceable(104) ptr @_ZNSt6vectorI17InteractionOfTypeSaIS0_EEixEm(ptr noundef nonnull align 8 dereferenceable(24) %50, i64 noundef %56) #4
  %58 = load i32, ptr %14, align 4
  %59 = load ptr, ptr %5, align 8
  %60 = load i32, ptr %11, align 4
  %61 = sext i32 %60 to i64
  %62 = getelementptr inbounds ptr, ptr %59, i64 %61
  %63 = load ptr, ptr %62, align 8
  %64 = load i32, ptr %12, align 4
  %65 = sext i32 %64 to i64
  %66 = getelementptr inbounds %struct.t_nbparam, ptr %63, i64 %65
  %67 = getelementptr inbounds %struct.t_nbparam, ptr %66, i32 0, i32 1
  %68 = load i32, ptr %14, align 4
  %69 = sext i32 %68 to i64
  %70 = getelementptr inbounds [4 x float], ptr %67, i64 0, i64 %69
  %71 = load float, ptr %70, align 4
  call void @_ZN17InteractionOfType17setForceParameterEif(ptr noundef nonnull align 8 dereferenceable(104) %57, i32 noundef %58, float noundef %71)
  %72 = load ptr, ptr %7, align 8
  %73 = getelementptr inbounds %struct.InteractionsOfType, ptr %72, i32 0, i32 0
  %74 = load i32, ptr %8, align 4
  %75 = load i32, ptr %12, align 4
  %76 = mul nsw i32 %74, %75
  %77 = load i32, ptr %11, align 4
  %78 = add nsw i32 %76, %77
  %79 = sext i32 %78 to i64
  %80 = call noundef nonnull align 8 dereferenceable(104) ptr @_ZNSt6vectorI17InteractionOfTypeSaIS0_EEixEm(ptr noundef nonnull align 8 dereferenceable(24) %73, i64 noundef %79) #4
  %81 = load i32, ptr %14, align 4
  %82 = load ptr, ptr %5, align 8
  %83 = load i32, ptr %11, align 4
  %84 = sext i32 %83 to i64
  %85 = getelementptr inbounds ptr, ptr %82, i64 %84
  %86 = load ptr, ptr %85, align 8
  %87 = load i32, ptr %12, align 4
  %88 = sext i32 %87 to i64
  %89 = getelementptr inbounds %struct.t_nbparam, ptr %86, i64 %88
  %90 = getelementptr inbounds %struct.t_nbparam, ptr %89, i32 0, i32 1
  %91 = load i32, ptr %14, align 4
  %92 = sext i32 %91 to i64
  %93 = getelementptr inbounds [4 x float], ptr %90, i64 0, i64 %92
  %94 = load float, ptr %93, align 4
  call void @_ZN17InteractionOfType17setForceParameterEif(ptr noundef nonnull align 8 dereferenceable(104) %80, i32 noundef %81, float noundef %94)
  br label %95

95:                                               ; preds = %48
  %96 = load i32, ptr %14, align 4
  %97 = add nsw i32 %96, 1
  store i32 %97, ptr %14, align 4
  br label %44, !llvm.loop !19

98:                                               ; preds = %44
  %99 = load i32, ptr %10, align 4
  %100 = add nsw i32 %99, 1
  store i32 %100, ptr %10, align 4
  br label %101

101:                                              ; preds = %98, %31
  br label %102

102:                                              ; preds = %101
  %103 = load i32, ptr %12, align 4
  %104 = add nsw i32 %103, 1
  store i32 %104, ptr %12, align 4
  br label %22, !llvm.loop !20

105:                                              ; preds = %22
  br label %106

106:                                              ; preds = %105
  %107 = load i32, ptr %11, align 4
  %108 = add nsw i32 %107, 1
  store i32 %108, ptr %11, align 4
  br label %17, !llvm.loop !21

109:                                              ; preds = %17
  %110 = load i32, ptr %10, align 4
  ret i32 %110
}