; Function Attrs: mustprogress uwtable
define noundef i32 @_Z13copy_nbparamsPP9t_nbparamiP18InteractionsOfTypei(ptr noundef readonly %0, i32 noundef %1, ptr nocapture noundef readonly %2, i32 noundef %3) local_unnamed_addr #1 {
  %5 = sext i32 %1 to i64
  %6 = getelementptr inbounds [94 x %struct.t_interaction_function], ptr @interaction_function, i64 0, i64 %5, i32 3
  %7 = load i32, ptr %6, align 4
  %8 = getelementptr inbounds [94 x %struct.t_interaction_function], ptr @interaction_function, i64 0, i64 %5, i32 4
  %9 = load i32, ptr %8, align 8
  %10 = add nsw i32 %9, %7
  %.fr48 = freeze i32 %10
  %11 = icmp sgt i32 %3, 0
  br i1 %11, label %.preheader38.lr.ph, label %._crit_edge

.preheader38.lr.ph:                               ; preds = %4
  %.not37 = icmp eq ptr %0, null
  br i1 %.not37, label %46, label %.preheader38.lr.ph.split

.preheader38.lr.ph.split:                         ; preds = %.preheader38.lr.ph
  %12 = icmp sgt i32 %.fr48, 0
  %13 = zext nneg i32 %3 to i64
  br i1 %12, label %.preheader38.us.preheader, label %.preheader38

.preheader38.us.preheader:                        ; preds = %.preheader38.lr.ph.split
  %wide.trip.count80 = zext nneg i32 %3 to i64
  %wide.trip.count = zext nneg i32 %.fr48 to i64
  br label %.preheader38.us

.preheader38.us:                                  ; preds = %.preheader38.us.preheader, %.split.us.us
  %indvars.iv75 = phi i64 [ 0, %.preheader38.us.preheader ], [ %indvars.iv.next76, %.split.us.us ]
  %indvars.iv73 = phi i64 [ 1, %.preheader38.us.preheader ], [ %indvars.iv.next74, %.split.us.us ]
  %.03545.us = phi i32 [ 0, %.preheader38.us.preheader ], [ %.2.us.us, %.split.us.us ]
  %14 = getelementptr inbounds ptr, ptr %0, i64 %indvars.iv75
  %15 = trunc i64 %indvars.iv75 to i32
  %16 = mul i32 %15, %3
  %17 = zext i32 %16 to i64
  br label %18

18:                                               ; preds = %23, %.preheader38.us
  %indvars.iv66 = phi i64 [ %indvars.iv.next67, %23 ], [ 0, %.preheader38.us ]
  %.142.us.us = phi i32 [ %.2.us.us, %23 ], [ %.03545.us, %.preheader38.us ]
  %19 = load ptr, ptr %14, align 8
  %20 = getelementptr inbounds %struct.t_nbparam, ptr %19, i64 %indvars.iv66
  %21 = load i8, ptr %20, align 4
  %22 = trunc i8 %21 to i1
  br i1 %22, label %.preheader.us.us, label %23

23:                                               ; preds = %._crit_edge.us.us, %18
  %.2.us.us = phi i32 [ %39, %._crit_edge.us.us ], [ %.142.us.us, %18 ]
  %indvars.iv.next67 = add nuw nsw i64 %indvars.iv66, 1
  %exitcond72.not = icmp eq i64 %indvars.iv.next67, %indvars.iv73
  br i1 %exitcond72.not, label %.split.us.us, label %18, !llvm.loop !41

24:                                               ; preds = %.preheader.us.us, %24
  %indvars.iv62 = phi i64 [ 0, %.preheader.us.us ], [ %indvars.iv.next63, %24 ]
  %25 = load ptr, ptr %2, align 8
  %26 = getelementptr %class.InteractionOfType, ptr %25, i64 %indvars.iv66
  %27 = getelementptr %class.InteractionOfType, ptr %26, i64 %17
  %28 = load ptr, ptr %14, align 8
  %29 = getelementptr inbounds %struct.t_nbparam, ptr %28, i64 %indvars.iv66, i32 1, i64 %indvars.iv62
  %30 = load float, ptr %29, align 4
  %31 = trunc nuw nsw i64 %indvars.iv62 to i32
  tail call void @_ZN17InteractionOfType17setForceParameterEif(ptr noundef nonnull align 8 dereferenceable(104) %27, i32 noundef %31, float noundef %30)
  %32 = load ptr, ptr %2, align 8
  %33 = getelementptr %class.InteractionOfType, ptr %32, i64 %38
  %34 = getelementptr %class.InteractionOfType, ptr %33, i64 %indvars.iv75
  %35 = load ptr, ptr %14, align 8
  %36 = getelementptr inbounds %struct.t_nbparam, ptr %35, i64 %indvars.iv66, i32 1, i64 %indvars.iv62
  %37 = load float, ptr %36, align 4
  tail call void @_ZN17InteractionOfType17setForceParameterEif(ptr noundef nonnull align 8 dereferenceable(104) %34, i32 noundef %31, float noundef %37)
  %indvars.iv.next63 = add nuw nsw i64 %indvars.iv62, 1
  %exitcond65.not = icmp eq i64 %indvars.iv.next63, %wide.trip.count
  br i1 %exitcond65.not, label %._crit_edge.us.us, label %24, !llvm.loop !42

.preheader.us.us:                                 ; preds = %18
  %38 = mul nsw i64 %indvars.iv66, %13
  br label %24

._crit_edge.us.us:                                ; preds = %24
  %39 = add nsw i32 %.142.us.us, 1
  br label %23

.split.us.us:                                     ; preds = %23
  %indvars.iv.next76 = add nuw nsw i64 %indvars.iv75, 1
  %indvars.iv.next74 = add nuw nsw i64 %indvars.iv73, 1
  %exitcond81.not = icmp eq i64 %indvars.iv.next76, %wide.trip.count80
  br i1 %exitcond81.not, label %._crit_edge, label %.preheader38.us, !llvm.loop !43

.preheader38:                                     ; preds = %.preheader38.lr.ph.split, %.split
  %indvars.iv55 = phi i64 [ %indvars.iv.next56, %.split ], [ 0, %.preheader38.lr.ph.split ]
  %indvars.iv53 = phi i64 [ %indvars.iv.next54, %.split ], [ 1, %.preheader38.lr.ph.split ]
  %.03545 = phi i32 [ %spec.select, %.split ], [ 0, %.preheader38.lr.ph.split ]
  %40 = getelementptr inbounds ptr, ptr %0, i64 %indvars.iv55
  %41 = load ptr, ptr %40, align 8
  br label %.preheader

.preheader:                                       ; preds = %.preheader38, %.preheader
  %indvars.iv = phi i64 [ 0, %.preheader38 ], [ %indvars.iv.next, %.preheader ]
  %.142 = phi i32 [ %.03545, %.preheader38 ], [ %spec.select, %.preheader ]
  %42 = getelementptr inbounds %struct.t_nbparam, ptr %41, i64 %indvars.iv
  %43 = load i8, ptr %42, align 4
  %44 = and i8 %43, 1
  %45 = zext nneg i8 %44 to i32
  %spec.select = add nsw i32 %.142, %45
  %indvars.iv.next = add nuw nsw i64 %indvars.iv, 1
  %exitcond.not = icmp eq i64 %indvars.iv.next, %indvars.iv53
  br i1 %exitcond.not, label %.split, label %.preheader, !llvm.loop !41

46:                                               ; preds = %.preheader38.lr.ph
  tail call void @_ZN3gmx8internal13assertHandlerEPKcS2_S2_S2_i(ptr noundef nonnull @.str.16, ptr noundef nonnull @.str.17, ptr noundef nonnull @"__PRETTY_FUNCTION__._ZZ13copy_nbparamsPP9t_nbparamiP18InteractionsOfTypeiENK3$_0clEv", ptr noundef nonnull @.str.9, i32 noundef 246) #24
  unreachable

.split:                                           ; preds = %.preheader
  %indvars.iv.next56 = add nuw nsw i64 %indvars.iv55, 1
  %indvars.iv.next54 = add nuw nsw i64 %indvars.iv53, 1
  %exitcond61.not = icmp eq i64 %indvars.iv.next56, %13
  br i1 %exitcond61.not, label %._crit_edge, label %.preheader38, !llvm.loop !43

._crit_edge:                                      ; preds = %.split, %.split.us.us, %4
  %.035.lcssa = phi i32 [ 0, %4 ], [ %.2.us.us, %.split.us.us ], [ %spec.select, %.split ]
  ret i32 %.035.lcssa
}